target datalayout = "e-m:e-p270:32:32-p271:32:32-p272:64:64-i64:64-i128:128-f80:128-n8:16:32:64-S128"
target triple = "x86_64-pc-linux-gnu"

%union.anon.1 = type { i64 }
%struct.gcm128_context = type { %union.anon.0, %union.anon.0, %union.anon.0, %union.anon.0, %union.anon.0, %union.anon.0, [16 x %struct.u128], ptr, ptr, i32, i32, ptr }
%union.anon.0 = type { [2 x i64] }
%struct.u128 = type { i64, i64 }

@__const.CRYPTO_gcm128_setiv.is_endian = private unnamed_addr constant %union.anon.1 { i64 1 }, align 8

; Function Attrs: nounwind uwtable
define hidden void @CRYPTO_gcm128_setiv(ptr noundef %0, ptr noundef %1, ptr noundef %2, i64 noundef %3) #0 {
  %5 = alloca ptr, align 8
  %6 = alloca ptr, align 8
  %7 = alloca ptr, align 8
  %8 = alloca i64, align 8
  %9 = alloca %union.anon.1, align 8
  %10 = alloca i32, align 4
  %11 = alloca ptr, align 8
  %12 = alloca i64, align 8
  %13 = alloca i64, align 8
  %14 = alloca i64, align 8
  %15 = alloca i64, align 8
  store ptr %0, ptr %5, align 8, !tbaa !6
  store ptr %1, ptr %6, align 8, !tbaa !11
  store ptr %2, ptr %7, align 8, !tbaa !29
  store i64 %3, ptr %8, align 8, !tbaa !16
  call void @llvm.lifetime.start.p0(i64 8, ptr %9) #5
  call void @llvm.memcpy.p0.p0.i64(ptr align 8 %9, ptr align 8 @__const.CRYPTO_gcm128_setiv.is_endian, i64 8, i1 false)
  call void @llvm.lifetime.start.p0(i64 4, ptr %10) #5
  call void @llvm.lifetime.start.p0(i64 8, ptr %11) #5
  %16 = load ptr, ptr %5, align 8, !tbaa !6
  %17 = getelementptr inbounds nuw %struct.gcm128_context, ptr %16, i32 0, i32 7
  %18 = load ptr, ptr %17, align 8, !tbaa !21
  store ptr %18, ptr %11, align 8, !tbaa !11
  %19 = load ptr, ptr %5, align 8, !tbaa !6
  %20 = getelementptr inbounds nuw %struct.gcm128_context, ptr %19, i32 0, i32 0
  %21 = getelementptr inbounds [2 x i64], ptr %20, i64 0, i64 0
  store i64 0, ptr %21, align 8, !tbaa !15
  %22 = load ptr, ptr %5, align 8, !tbaa !6
  %23 = getelementptr inbounds nuw %struct.gcm128_context, ptr %22, i32 0, i32 0
  %24 = getelementptr inbounds [2 x i64], ptr %23, i64 0, i64 1
  store i64 0, ptr %24, align 8, !tbaa !15
  %25 = load ptr, ptr %5, align 8, !tbaa !6
  %26 = getelementptr inbounds nuw %struct.gcm128_context, ptr %25, i32 0, i32 4
  %27 = getelementptr inbounds [2 x i64], ptr %26, i64 0, i64 0
  store i64 0, ptr %27, align 8, !tbaa !15
  %28 = load ptr, ptr %5, align 8, !tbaa !6
  %29 = getelementptr inbounds nuw %struct.gcm128_context, ptr %28, i32 0, i32 4
  %30 = getelementptr inbounds [2 x i64], ptr %29, i64 0, i64 1
  store i64 0, ptr %30, align 8, !tbaa !15
  %31 = load ptr, ptr %5, align 8, !tbaa !6
  %32 = getelementptr inbounds nuw %struct.gcm128_context, ptr %31, i32 0, i32 3
  %33 = getelementptr inbounds [2 x i64], ptr %32, i64 0, i64 0
  store i64 0, ptr %33, align 8, !tbaa !15
  %34 = load ptr, ptr %5, align 8, !tbaa !6
  %35 = getelementptr inbounds nuw %struct.gcm128_context, ptr %34, i32 0, i32 3
  %36 = getelementptr inbounds [2 x i64], ptr %35, i64 0, i64 1
  store i64 0, ptr %36, align 8, !tbaa !15
  %37 = load ptr, ptr %5, align 8, !tbaa !6
  %38 = getelementptr inbounds nuw %struct.gcm128_context, ptr %37, i32 0, i32 10
  store i32 0, ptr %38, align 4, !tbaa !31
  %39 = load ptr, ptr %5, align 8, !tbaa !6
  %40 = getelementptr inbounds nuw %struct.gcm128_context, ptr %39, i32 0, i32 9
  store i32 0, ptr %40, align 8, !tbaa !32
  %41 = load i64, ptr %8, align 8, !tbaa !16
  %42 = icmp eq i64 %41, 12
  br i1 %42, label %43, label %51

43:                                               ; preds = %4
  %44 = load ptr, ptr %5, align 8, !tbaa !6
  %45 = getelementptr inbounds nuw %struct.gcm128_context, ptr %44, i32 0, i32 0
  %46 = getelementptr inbounds [16 x i8], ptr %45, i64 0, i64 0
  %47 = load ptr, ptr %7, align 8, !tbaa !29
  call void @llvm.memcpy.p0.p0.i64(ptr align 8 %46, ptr align 1 %47, i64 12, i1 false)
  %48 = load ptr, ptr %5, align 8, !tbaa !6
  %49 = getelementptr inbounds nuw %struct.gcm128_context, ptr %48, i32 0, i32 0
  %50 = getelementptr inbounds [16 x i8], ptr %49, i64 0, i64 15
  store i8 1, ptr %50, align 1, !tbaa !15
  store i32 1, ptr %10, align 4, !tbaa !20
  br label %196

51:                                               ; preds = %4
  call void @llvm.lifetime.start.p0(i64 8, ptr %12) #5
  call void @llvm.lifetime.start.p0(i64 8, ptr %13) #5
  %52 = load i64, ptr %8, align 8, !tbaa !16
  store i64 %52, ptr %13, align 8, !tbaa !16
  br label %53

53:                                               ; preds = %77, %51
  %54 = load i64, ptr %8, align 8, !tbaa !16
  %55 = icmp uge i64 %54, 16
  br i1 %55, label %56, label %89

56:                                               ; preds = %53
  store i64 0, ptr %12, align 8, !tbaa !16
  br label %57

57:                                               ; preds = %74, %56
  %58 = load i64, ptr %12, align 8, !tbaa !16
  %59 = icmp ult i64 %58, 16
  br i1 %59, label %60, label %77

60:                                               ; preds = %57
  %61 = load ptr, ptr %7, align 8, !tbaa !29
  %62 = load i64, ptr %12, align 8, !tbaa !16
  %63 = getelementptr inbounds nuw i8, ptr %61, i64 %62
  %64 = load i8, ptr %63, align 1, !tbaa !15
  %65 = zext i8 %64 to i32
  %66 = load ptr, ptr %5, align 8, !tbaa !6
  %67 = getelementptr inbounds nuw %struct.gcm128_context, ptr %66, i32 0, i32 0
  %68 = load i64, ptr %12, align 8, !tbaa !16
  %69 = getelementptr inbounds nuw [16 x i8], ptr %67, i64 0, i64 %68
  %70 = load i8, ptr %69, align 1, !tbaa !15
  %71 = zext i8 %70 to i32
  %72 = xor i32 %71, %65
  %73 = trunc i32 %72 to i8
  store i8 %73, ptr %69, align 1, !tbaa !15
  br label %74

74:                                               ; preds = %60
  %75 = load i64, ptr %12, align 8, !tbaa !16
  %76 = add i64 %75, 1
  store i64 %76, ptr %12, align 8, !tbaa !16
  br label %57, !llvm.loop !33

77:                                               ; preds = %57
  %78 = load ptr, ptr %11, align 8, !tbaa !11
  %79 = load ptr, ptr %5, align 8, !tbaa !6
  %80 = getelementptr inbounds nuw %struct.gcm128_context, ptr %79, i32 0, i32 0
  %81 = getelementptr inbounds [2 x i64], ptr %80, i64 0, i64 0
  %82 = load ptr, ptr %5, align 8, !tbaa !6
  %83 = getelementptr inbounds nuw %struct.gcm128_context, ptr %82, i32 0, i32 6
  %84 = getelementptr inbounds [16 x %struct.u128], ptr %83, i64 0, i64 0
  call void %78(ptr noundef %81, ptr noundef %84)
  %85 = load ptr, ptr %7, align 8, !tbaa !29
  %86 = getelementptr inbounds i8, ptr %85, i64 16
  store ptr %86, ptr %7, align 8, !tbaa !29
  %87 = load i64, ptr %8, align 8, !tbaa !16
  %88 = sub i64 %87, 16
  store i64 %88, ptr %8, align 8, !tbaa !16
  br label %53, !llvm.loop !35

89:                                               ; preds = %53
  %90 = load i64, ptr %8, align 8, !tbaa !16
  %91 = icmp ne i64 %90, 0
  br i1 %91, label %92, label %122

92:                                               ; preds = %89
  store i64 0, ptr %12, align 8, !tbaa !16
  br label %93

93:                                               ; preds = %111, %92
  %94 = load i64, ptr %12, align 8, !tbaa !16
  %95 = load i64, ptr %8, align 8, !tbaa !16
  %96 = icmp ult i64 %94, %95
  br i1 %96, label %97, label %114

97:                                               ; preds = %93
  %98 = load ptr, ptr %7, align 8, !tbaa !29
  %99 = load i64, ptr %12, align 8, !tbaa !16
  %100 = getelementptr inbounds nuw i8, ptr %98, i64 %99
  %101 = load i8, ptr %100, align 1, !tbaa !15
  %102 = zext i8 %101 to i32
  %103 = load ptr, ptr %5, align 8, !tbaa !6
  %104 = getelementptr inbounds nuw %struct.gcm128_context, ptr %103, i32 0, i32 0
  %105 = load i64, ptr %12, align 8, !tbaa !16
  %106 = getelementptr inbounds nuw [16 x i8], ptr %104, i64 0, i64 %105
  %107 = load i8, ptr %106, align 1, !tbaa !15
  %108 = zext i8 %107 to i32
  %109 = xor i32 %108, %102
  %110 = trunc i32 %109 to i8
  store i8 %110, ptr %106, align 1, !tbaa !15
  br label %111

111:                                              ; preds = %97
  %112 = load i64, ptr %12, align 8, !tbaa !16
  %113 = add i64 %112, 1
  store i64 %113, ptr %12, align 8, !tbaa !16
  br label %93, !llvm.loop !36

114:                                              ; preds = %93
  %115 = load ptr, ptr %11, align 8, !tbaa !11
  %116 = load ptr, ptr %5, align 8, !tbaa !6
  %117 = getelementptr inbounds nuw %struct.gcm128_context, ptr %116, i32 0, i32 0
  %118 = getelementptr inbounds [2 x i64], ptr %117, i64 0, i64 0
  %119 = load ptr, ptr %5, align 8, !tbaa !6
  %120 = getelementptr inbounds nuw %struct.gcm128_context, ptr %119, i32 0, i32 6
  %121 = getelementptr inbounds [16 x %struct.u128], ptr %120, i64 0, i64 0
  call void %115(ptr noundef %118, ptr noundef %121)
  br label %122

122:                                              ; preds = %114, %89
  %123 = load i64, ptr %13, align 8, !tbaa !16
  %124 = shl i64 %123, 3
  store i64 %124, ptr %13, align 8, !tbaa !16
  %125 = load i8, ptr %9, align 8, !tbaa !15
  %126 = icmp ne i8 %125, 0
  br i1 %126, label %127, label %138

127:                                              ; preds = %122
  call void @llvm.lifetime.start.p0(i64 8, ptr %14) #5
  %128 = load i64, ptr %13, align 8, !tbaa !16
  store i64 %128, ptr %14, align 8, !tbaa !16
  %129 = load i64, ptr %14, align 8, !tbaa !16
  %130 = call i64 asm "bswapq $0", "=r,0,~{dirflag},~{fpsr},~{flags}"(i64 %129) #6, !srcloc !37
  store i64 %130, ptr %14, align 8, !tbaa !16
  %131 = load i64, ptr %14, align 8, !tbaa !16
  store i64 %131, ptr %15, align 8, !tbaa !16
  call void @llvm.lifetime.end.p0(i64 8, ptr %14) #5
  %132 = load i64, ptr %15, align 8, !tbaa !16
  %133 = load ptr, ptr %5, align 8, !tbaa !6
  %134 = getelementptr inbounds nuw %struct.gcm128_context, ptr %133, i32 0, i32 0
  %135 = getelementptr inbounds [2 x i64], ptr %134, i64 0, i64 1
  %136 = load i64, ptr %135, align 8, !tbaa !15
  %137 = xor i64 %136, %132
  store i64 %137, ptr %135, align 8, !tbaa !15
  br label %145

138:                                              ; preds = %122
  %139 = load i64, ptr %13, align 8, !tbaa !16
  %140 = load ptr, ptr %5, align 8, !tbaa !6
  %141 = getelementptr inbounds nuw %struct.gcm128_context, ptr %140, i32 0, i32 0
  %142 = getelementptr inbounds [2 x i64], ptr %141, i64 0, i64 1
  %143 = load i64, ptr %142, align 8, !tbaa !15
  %144 = xor i64 %143, %139
  store i64 %144, ptr %142, align 8, !tbaa !15
  br label %145

145:                                              ; preds = %138, %127
  %146 = load ptr, ptr %11, align 8, !tbaa !11
  %147 = load ptr, ptr %5, align 8, !tbaa !6
  %148 = getelementptr inbounds nuw %struct.gcm128_context, ptr %147, i32 0, i32 0
  %149 = getelementptr inbounds [2 x i64], ptr %148, i64 0, i64 0
  %150 = load ptr, ptr %5, align 8, !tbaa !6
  %151 = getelementptr inbounds nuw %struct.gcm128_context, ptr %150, i32 0, i32 6
  %152 = getelementptr inbounds [16 x %struct.u128], ptr %151, i64 0, i64 0
  call void %146(ptr noundef %149, ptr noundef %152)
  %153 = load i8, ptr %9, align 8, !tbaa !15
  %154 = icmp ne i8 %153, 0
  br i1 %154, label %155, label %190

155:                                              ; preds = %145
  %156 = load ptr, ptr %5, align 8, !tbaa !6
  %157 = getelementptr inbounds nuw %struct.gcm128_context, ptr %156, i32 0, i32 0
  %158 = getelementptr inbounds [16 x i8], ptr %157, i64 0, i64 0
  %159 = getelementptr inbounds i8, ptr %158, i64 12
  %160 = getelementptr inbounds i8, ptr %159, i64 0
  %161 = load i8, ptr %160, align 1, !tbaa !15
  %162 = zext i8 %161 to i32
  %163 = shl i32 %162, 24
  %164 = load ptr, ptr %5, align 8, !tbaa !6
  %165 = getelementptr inbounds nuw %struct.gcm128_context, ptr %164, i32 0, i32 0
  %166 = getelementptr inbounds [16 x i8], ptr %165, i64 0, i64 0
  %167 = getelementptr inbounds i8, ptr %166, i64 12
  %168 = getelementptr inbounds i8, ptr %167, i64 1
  %169 = load i8, ptr %168, align 1, !tbaa !15
  %170 = zext i8 %169 to i32
  %171 = shl i32 %170, 16
  %172 = or i32 %163, %171
  %173 = load ptr, ptr %5, align 8, !tbaa !6
  %174 = getelementptr inbounds nuw %struct.gcm128_context, ptr %173, i32 0, i32 0
  %175 = getelementptr inbounds [16 x i8], ptr %174, i64 0, i64 0
  %176 = getelementptr inbounds i8, ptr %175, i64 12
  %177 = getelementptr inbounds i8, ptr %176, i64 2
  %178 = load i8, ptr %177, align 1, !tbaa !15
  %179 = zext i8 %178 to i32
  %180 = shl i32 %179, 8
  %181 = or i32 %172, %180
  %182 = load ptr, ptr %5, align 8, !tbaa !6
  %183 = getelementptr inbounds nuw %struct.gcm128_context, ptr %182, i32 0, i32 0
  %184 = getelementptr inbounds [16 x i8], ptr %183, i64 0, i64 0
  %185 = getelementptr inbounds i8, ptr %184, i64 12
  %186 = getelementptr inbounds i8, ptr %185, i64 3
  %187 = load i8, ptr %186, align 1, !tbaa !15
  %188 = zext i8 %187 to i32
  %189 = or i32 %181, %188
  store i32 %189, ptr %10, align 4, !tbaa !20
  br label %195

190:                                              ; preds = %145
  %191 = load ptr, ptr %5, align 8, !tbaa !6
  %192 = getelementptr inbounds nuw %struct.gcm128_context, ptr %191, i32 0, i32 0
  %193 = getelementptr inbounds [4 x i32], ptr %192, i64 0, i64 3
  %194 = load i32, ptr %193, align 4, !tbaa !15
  store i32 %194, ptr %10, align 4, !tbaa !20
  br label %195

195:                                              ; preds = %190, %155
  call void @llvm.lifetime.end.p0(i64 8, ptr %13) #5
  call void @llvm.lifetime.end.p0(i64 8, ptr %12) #5
  br label %196

196:                                              ; preds = %195, %43
  %197 = load ptr, ptr %5, align 8, !tbaa !6
  %198 = getelementptr inbounds nuw %struct.gcm128_context, ptr %197, i32 0, i32 11
  %199 = load ptr, ptr %198, align 8, !tbaa !12
  %200 = load ptr, ptr %5, align 8, !tbaa !6
  %201 = getelementptr inbounds nuw %struct.gcm128_context, ptr %200, i32 0, i32 0
  %202 = getelementptr inbounds [16 x i8], ptr %201, i64 0, i64 0
  %203 = load ptr, ptr %5, align 8, !tbaa !6
  %204 = getelementptr inbounds nuw %struct.gcm128_context, ptr %203, i32 0, i32 2
  %205 = getelementptr inbounds [16 x i8], ptr %204, i64 0, i64 0
  %206 = load ptr, ptr %6, align 8, !tbaa !11
  call void %199(ptr noundef %202, ptr noundef %205, ptr noundef %206)
  %207 = load i32, ptr %10, align 4, !tbaa !20
  %208 = add i32 %207, 1
  store i32 %208, ptr %10, align 4, !tbaa !20
  %209 = load i8, ptr %9, align 8, !tbaa !15
  %210 = icmp ne i8 %209, 0
  br i1 %210, label %211, label %243

211:                                              ; preds = %196
  %212 = load i32, ptr %10, align 4, !tbaa !20
  %213 = lshr i32 %212, 24
  %214 = trunc i32 %213 to i8
  %215 = load ptr, ptr %5, align 8, !tbaa !6
  %216 = getelementptr inbounds nuw %struct.gcm128_context, ptr %215, i32 0, i32 0
  %217 = getelementptr inbounds [16 x i8], ptr %216, i64 0, i64 0
  %218 = getelementptr inbounds i8, ptr %217, i64 12
  %219 = getelementptr inbounds i8, ptr %218, i64 0
  store i8 %214, ptr %219, align 1, !tbaa !15
  %220 = load i32, ptr %10, align 4, !tbaa !20
  %221 = lshr i32 %220, 16
  %222 = trunc i32 %221 to i8
  %223 = load ptr, ptr %5, align 8, !tbaa !6
  %224 = getelementptr inbounds nuw %struct.gcm128_context, ptr %223, i32 0, i32 0
  %225 = getelementptr inbounds [16 x i8], ptr %224, i64 0, i64 0
  %226 = getelementptr inbounds i8, ptr %225, i64 12
  %227 = getelementptr inbounds i8, ptr %226, i64 1
  store i8 %222, ptr %227, align 1, !tbaa !15
  %228 = load i32, ptr %10, align 4, !tbaa !20
  %229 = lshr i32 %228, 8
  %230 = trunc i32 %229 to i8
  %231 = load ptr, ptr %5, align 8, !tbaa !6
  %232 = getelementptr inbounds nuw %struct.gcm128_context, ptr %231, i32 0, i32 0
  %233 = getelementptr inbounds [16 x i8], ptr %232, i64 0, i64 0
  %234 = getelementptr inbounds i8, ptr %233, i64 12
  %235 = getelementptr inbounds i8, ptr %234, i64 2
  store i8 %230, ptr %235, align 1, !tbaa !15
  %236 = load i32, ptr %10, align 4, !tbaa !20
  %237 = trunc i32 %236 to i8
  %238 = load ptr, ptr %5, align 8, !tbaa !6
  %239 = getelementptr inbounds nuw %struct.gcm128_context, ptr %238, i32 0, i32 0
  %240 = getelementptr inbounds [16 x i8], ptr %239, i64 0, i64 0
  %241 = getelementptr inbounds i8, ptr %240, i64 12
  %242 = getelementptr inbounds i8, ptr %241, i64 3
  store i8 %237, ptr %242, align 1, !tbaa !15
  br label %248

243:                                              ; preds = %196
  %244 = load i32, ptr %10, align 4, !tbaa !20
  %245 = load ptr, ptr %5, align 8, !tbaa !6
  %246 = getelementptr inbounds nuw %struct.gcm128_context, ptr %245, i32 0, i32 0
  %247 = getelementptr inbounds [4 x i32], ptr %246, i64 0, i64 3
  store i32 %244, ptr %247, align 4, !tbaa !15
  br label %248

248:                                              ; preds = %243, %211
  call void @llvm.lifetime.end.p0(i64 8, ptr %11) #5
  call void @llvm.lifetime.end.p0(i64 4, ptr %10) #5
  call void @llvm.lifetime.end.p0(i64 8, ptr %9) #5
  ret void
}