; Function Attrs: nounwind uwtable
define hidden void @CRYPTO_gcm128_setiv(ptr noundef initializes((0, 16), (48, 80), (368, 376)) %0, ptr noundef %1, ptr noundef readonly captures(none) %2, i64 noundef %3) local_unnamed_addr #0 {
  %5 = getelementptr inbounds nuw i8, ptr %0, i64 352
  %6 = load ptr, ptr %5, align 8, !tbaa !16
  %7 = getelementptr inbounds nuw i8, ptr %0, i64 8
  %8 = getelementptr inbounds nuw i8, ptr %0, i64 48
  %9 = getelementptr inbounds nuw i8, ptr %0, i64 372
  store i32 0, ptr %9, align 4, !tbaa !23
  %10 = getelementptr inbounds nuw i8, ptr %0, i64 368
  store i32 0, ptr %10, align 8, !tbaa !24
  %11 = icmp eq i64 %3, 12
  tail call void @llvm.memset.p0.i64(ptr noundef nonnull align 8 dereferenceable(16) %0, i8 0, i64 16, i1 false)
  tail call void @llvm.memset.p0.i64(ptr noundef nonnull align 8 dereferenceable(32) %8, i8 0, i64 32, i1 false)
  br i1 %11, label %14, label %.preheader75

.preheader75:                                     ; preds = %4
  %12 = icmp ugt i64 %3, 15
  br i1 %12, label %.preheader74.lr.ph, label %._crit_edge

.preheader74.lr.ph:                               ; preds = %.preheader75
  %13 = getelementptr inbounds nuw i8, ptr %0, i64 96
  br label %.preheader74

14:                                               ; preds = %4
  tail call void @llvm.memcpy.p0.p0.i64(ptr noundef nonnull align 8 dereferenceable(12) %0, ptr noundef nonnull align 1 dereferenceable(12) %2, i64 12, i1 false)
  %15 = getelementptr inbounds nuw i8, ptr %0, i64 15
  store i8 1, ptr %15, align 1, !tbaa !12
  br label %60

.preheader74:                                     ; preds = %.preheader74.lr.ph, %23
  %.078 = phi ptr [ %2, %.preheader74.lr.ph ], [ %24, %23 ]
  %.06977 = phi i64 [ %3, %.preheader74.lr.ph ], [ %25, %23 ]
  br label %16

16:                                               ; preds = %.preheader74, %16
  %.07076 = phi i64 [ 0, %.preheader74 ], [ %22, %16 ]
  %17 = getelementptr inbounds nuw i8, ptr %.078, i64 %.07076
  %18 = load i8, ptr %17, align 1, !tbaa !12
  %19 = getelementptr inbounds nuw [16 x i8], ptr %0, i64 0, i64 %.07076
  %20 = load i8, ptr %19, align 1, !tbaa !12
  %21 = xor i8 %20, %18
  store i8 %21, ptr %19, align 1, !tbaa !12
  %22 = add nuw nsw i64 %.07076, 1
  %exitcond.not = icmp eq i64 %22, 16
  br i1 %exitcond.not, label %23, label %16, !llvm.loop !25

23:                                               ; preds = %16
  tail call void %6(ptr noundef nonnull %0, ptr noundef nonnull %13) #6
  %24 = getelementptr inbounds nuw i8, ptr %.078, i64 16
  %25 = add i64 %.06977, -16
  %26 = icmp ugt i64 %25, 15
  br i1 %26, label %.preheader74, label %._crit_edge, !llvm.loop !27

._crit_edge:                                      ; preds = %23, %.preheader75
  %.069.lcssa = phi i64 [ %3, %.preheader75 ], [ %25, %23 ]
  %.0.lcssa = phi ptr [ %2, %.preheader75 ], [ %24, %23 ]
  %.not = icmp eq i64 %.069.lcssa, 0
  br i1 %.not, label %35, label %.preheader

.preheader:                                       ; preds = %._crit_edge, %.preheader
  %.180 = phi i64 [ %32, %.preheader ], [ 0, %._crit_edge ]
  %27 = getelementptr inbounds nuw i8, ptr %.0.lcssa, i64 %.180
  %28 = load i8, ptr %27, align 1, !tbaa !12
  %29 = getelementptr inbounds nuw [16 x i8], ptr %0, i64 0, i64 %.180
  %30 = load i8, ptr %29, align 1, !tbaa !12
  %31 = xor i8 %30, %28
  store i8 %31, ptr %29, align 1, !tbaa !12
  %32 = add nuw i64 %.180, 1
  %exitcond82.not = icmp eq i64 %32, %.069.lcssa
  br i1 %exitcond82.not, label %33, label %.preheader, !llvm.loop !28

33:                                               ; preds = %.preheader
  %34 = getelementptr inbounds nuw i8, ptr %0, i64 96
  tail call void %6(ptr noundef nonnull %0, ptr noundef nonnull %34) #6
  br label %35

35:                                               ; preds = %._crit_edge, %33
  %36 = shl i64 %3, 3
  %37 = tail call i64 asm "bswapq $0", "=r,0,~{dirflag},~{fpsr},~{flags}"(i64 %36) #7, !srcloc !29
  %38 = load i64, ptr %7, align 8, !tbaa !12
  %39 = xor i64 %38, %37
  store i64 %39, ptr %7, align 8, !tbaa !12
  %40 = getelementptr inbounds nuw i8, ptr %0, i64 96
  tail call void %6(ptr noundef nonnull %0, ptr noundef nonnull %40) #6
  %41 = getelementptr inbounds nuw i8, ptr %0, i64 12
  %42 = load i8, ptr %41, align 1, !tbaa !12
  %43 = zext i8 %42 to i32
  %44 = shl nuw i32 %43, 24
  %45 = getelementptr inbounds nuw i8, ptr %0, i64 13
  %46 = load i8, ptr %45, align 1, !tbaa !12
  %47 = zext i8 %46 to i32
  %48 = shl nuw nsw i32 %47, 16
  %49 = or disjoint i32 %48, %44
  %50 = getelementptr inbounds nuw i8, ptr %0, i64 14
  %51 = load i8, ptr %50, align 1, !tbaa !12
  %52 = zext i8 %51 to i32
  %53 = shl nuw nsw i32 %52, 8
  %54 = or disjoint i32 %49, %53
  %55 = getelementptr inbounds nuw i8, ptr %0, i64 15
  %56 = load i8, ptr %55, align 1, !tbaa !12
  %57 = zext i8 %56 to i32
  %58 = or disjoint i32 %54, %57
  %59 = add i32 %58, 1
  br label %60

60:                                               ; preds = %35, %14
  %.071 = phi i32 [ 2, %14 ], [ %59, %35 ]
  %61 = getelementptr inbounds nuw i8, ptr %0, i64 376
  %62 = load ptr, ptr %61, align 8, !tbaa !6
  %63 = getelementptr inbounds nuw i8, ptr %0, i64 32
  tail call void %62(ptr noundef nonnull %0, ptr noundef nonnull %63, ptr noundef %1) #6
  %64 = lshr i32 %.071, 24
  %65 = trunc nuw i32 %64 to i8
  %66 = getelementptr inbounds nuw i8, ptr %0, i64 12
  store i8 %65, ptr %66, align 1, !tbaa !12
  %67 = lshr i32 %.071, 16
  %68 = trunc i32 %67 to i8
  %69 = getelementptr inbounds nuw i8, ptr %0, i64 13
  store i8 %68, ptr %69, align 1, !tbaa !12
  %70 = lshr i32 %.071, 8
  %71 = trunc i32 %70 to i8
  %72 = getelementptr inbounds nuw i8, ptr %0, i64 14
  store i8 %71, ptr %72, align 1, !tbaa !12
  %73 = trunc i32 %.071 to i8
  %74 = getelementptr inbounds nuw i8, ptr %0, i64 15
  store i8 %73, ptr %74, align 1, !tbaa !12
  ret void
}